	.file	"func1.c"
	.text
	.globl	fun1
	.type	fun1, @function
fun1:
.LFB0:
	.cfi_startproc
	endbr32
	pushl	%ebp
	.cfi_def_cfa_offset 8
	.cfi_offset 5, -8
	movl	%esp, %ebp
	.cfi_def_cfa_register 5
	call	__x86.get_pc_thunk.ax
	addl	$_GLOBAL_OFFSET_TABLE_, %eax
	fildl	8(%ebp)
	popl	%ebp
	.cfi_restore 5
	.cfi_def_cfa 4, 4
	ret
	.cfi_endproc
.LFE0:
	.size	fun1, .-fun1
	.globl	fun2
	.type	fun2, @function
fun2:
.LFB1:
	.cfi_startproc
	endbr32
	pushl	%ebp
	.cfi_def_cfa_offset 8
	.cfi_offset 5, -8
	movl	%esp, %ebp
	.cfi_def_cfa_register 5
	call	__x86.get_pc_thunk.ax
	addl	$_GLOBAL_OFFSET_TABLE_, %eax
	fildl	8(%ebp)
	popl	%ebp
	.cfi_restore 5
	.cfi_def_cfa 4, 4
	ret
	.cfi_endproc
.LFE1:
	.size	fun2, .-fun2
	.globl	main
	.type	main, @function
main:
.LFB2:
	.cfi_startproc
	endbr32
	leal	4(%esp), %ecx
	.cfi_def_cfa 1, 0
	andl	$-8, %esp
	pushl	-4(%ecx)
	pushl	%ebp
	.cfi_escape 0x10,0x5,0x2,0x75,0
	movl	%esp, %ebp
	pushl	%ecx
	.cfi_escape 0xf,0x3,0x75,0x7c,0x6
	subl	$28, %esp
	call	__x86.get_pc_thunk.ax
	addl	$_GLOBAL_OFFSET_TABLE_, %eax
	flds	.LC0@GOTOFF(%eax)
	fstps	-20(%ebp)
	fldl	.LC1@GOTOFF(%eax)
	fstpl	-16(%ebp)
	flds	-20(%ebp)
	fnstcw	-26(%ebp)
	movzwl	-26(%ebp), %eax
	orb	$12, %ah
	movw	%ax, -28(%ebp)
	fldcw	-28(%ebp)
	fistpl	-32(%ebp)
	fldcw	-26(%ebp)
	movl	-32(%ebp), %eax
	pushl	%eax
	call	fun1
	fstp	%st(0)
	addl	$4, %esp
	fldl	-16(%ebp)
	fnstcw	-26(%ebp)
	movzwl	-26(%ebp), %eax
	orb	$12, %ah
	movw	%ax, -28(%ebp)
	fldcw	-28(%ebp)
	fistpl	-32(%ebp)
	fldcw	-26(%ebp)
	movl	-32(%ebp), %eax
	subl	$4, %esp
	pushl	%eax
	call	fun2
	fstp	%st(0)
	addl	$8, %esp
	nop
	movl	-4(%ebp), %ecx
	.cfi_def_cfa 1, 0
	leave
	.cfi_restore 5
	leal	-4(%ecx), %esp
	.cfi_def_cfa 4, 4
	ret
	.cfi_endproc
.LFE2:
	.size	main, .-main
	.section	.rodata
	.align 4
.LC0:
	.long	1080452710
	.align 8
.LC1:
	.long	3435973837
	.long	1075236044
	.section	.text.__x86.get_pc_thunk.ax,"axG",@progbits,__x86.get_pc_thunk.ax,comdat
	.globl	__x86.get_pc_thunk.ax
	.hidden	__x86.get_pc_thunk.ax
	.type	__x86.get_pc_thunk.ax, @function
__x86.get_pc_thunk.ax:
.LFB3:
	.cfi_startproc
	movl	(%esp), %eax
	ret
	.cfi_endproc
.LFE3:
	.ident	"GCC: (Ubuntu 9.3.0-17ubuntu1~20.04) 9.3.0"
	.section	.note.GNU-stack,"",@progbits
	.section	.note.gnu.property,"a"
	.align 4
	.long	 1f - 0f
	.long	 4f - 1f
	.long	 5
0:
	.string	 "GNU"
1:
	.align 4
	.long	 0xc0000002
	.long	 3f - 2f
2:
	.long	 0x3
3:
	.align 4
4:
